target datalayout = "e-m:e-p270:32:32-p271:32:32-p272:64:64-i64:64-i128:128-f80:128-n8:16:32:64-S128"
target triple = "x86_64-pc-linux-gnu"

%struct.quic_info_data = type { i32, i32, ptr, i16, i32, i32, i32, %struct.quic_ciphers, %struct.quic_ciphers, %struct.quic_ciphers, %struct.quic_ciphers, %struct.quic_ciphers, %struct.quic_pp_state, %struct.quic_pp_state, [3 x i64], [3 x i64], ptr, ptr, %struct.quic_cid_item, %struct.quic_cid_item, %struct.quic_cid, ptr, ptr, ptr, ptr, ptr, ptr, ptr, ptr, ptr, ptr }
%struct.quic_ciphers = type { %struct.quic_hp_cipher, %struct.quic_pp_cipher }
%struct.quic_hp_cipher = type { ptr }
%struct.quic_pp_cipher = type { ptr, [12 x i8] }
%struct.quic_pp_state = type { ptr, [2 x %struct.quic_pp_cipher], %struct.quic_hp_cipher, i64, i8 }
%struct.quic_cid_item = type { ptr, %struct.quic_cid }
%struct.quic_cid = type { i8, [20 x i8], [16 x i8], i8, i64, i64 }

@quic_connections = internal global ptr null, align 8

; Function Attrs: null_pointer_is_valid sspstrong uwtable
define internal ptr @get_conn_by_number(i32 noundef %0) #0 {
  %2 = alloca ptr, align 8
  %3 = alloca i32, align 4
  %4 = alloca ptr, align 8
  %5 = alloca ptr, align 8
  %6 = alloca i32, align 4
  store i32 %0, ptr %3, align 4
  call void @llvm.lifetime.start.p0(i64 8, ptr %4) #19
  call void @llvm.lifetime.start.p0(i64 8, ptr %5) #19
  %7 = load ptr, ptr @quic_connections, align 8
  %8 = call ptr @wmem_list_head(ptr noundef %7)
  store ptr %8, ptr %5, align 8
  br label %9

9:                                                ; preds = %22, %1
  %10 = load ptr, ptr %5, align 8
  %11 = icmp ne ptr %10, null
  br i1 %11, label %12, label %25

12:                                               ; preds = %9
  %13 = load ptr, ptr %5, align 8
  %14 = call ptr @wmem_list_frame_data(ptr noundef %13)
  store ptr %14, ptr %4, align 8
  %15 = load ptr, ptr %4, align 8
  %16 = getelementptr inbounds nuw %struct.quic_info_data, ptr %15, i32 0, i32 0
  %17 = load i32, ptr %16, align 8
  %18 = load i32, ptr %3, align 4
  %19 = icmp eq i32 %17, %18
  br i1 %19, label %20, label %22

20:                                               ; preds = %12
  %21 = load ptr, ptr %4, align 8
  store ptr %21, ptr %2, align 8
  store i32 1, ptr %6, align 4
  br label %26

22:                                               ; preds = %12
  %23 = load ptr, ptr %5, align 8
  %24 = call ptr @wmem_list_frame_next(ptr noundef %23)
  store ptr %24, ptr %5, align 8
  br label %9, !llvm.loop !12

25:                                               ; preds = %9
  store ptr null, ptr %2, align 8
  store i32 1, ptr %6, align 4
  br label %26

26:                                               ; preds = %25, %20
  call void @llvm.lifetime.end.p0(i64 8, ptr %5) #19
  call void @llvm.lifetime.end.p0(i64 8, ptr %4) #19
  %27 = load ptr, ptr %2, align 8
  ret ptr %27
}

; Function Attrs: null_pointer_is_valid sspstrong uwtable
define zeroext i1 @quic_get_stream_id_ge(i32 noundef %0, i32 noundef %1, ptr noundef %2) #0 {
  %4 = alloca i1, align 1
  %5 = alloca i32, align 4
  %6 = alloca i32, align 4
  %7 = alloca ptr, align 8
  %8 = alloca ptr, align 8
  %9 = alloca ptr, align 8
  %10 = alloca i32, align 4
  store i32 %0, ptr %5, align 4
  store i32 %1, ptr %6, align 4
  store ptr %2, ptr %7, align 8
  call void @llvm.lifetime.start.p0(i64 8, ptr %8) #19
  call void @llvm.lifetime.start.p0(i64 8, ptr %9) #19
  %11 = load i32, ptr %5, align 4
  %12 = call ptr @get_conn_by_number(i32 noundef %11)
  store ptr %12, ptr %8, align 8
  %13 = load ptr, ptr %8, align 8
  %14 = icmp ne ptr %13, null
  br i1 %14, label %16, label %15

15:                                               ; preds = %3
  store i1 false, ptr %4, align 1
  store i32 1, ptr %10, align 4
  br label %47

16:                                               ; preds = %3
  %17 = load ptr, ptr %8, align 8
  %18 = getelementptr inbounds nuw %struct.quic_info_data, ptr %17, i32 0, i32 25
  %19 = load ptr, ptr %18, align 8
  %20 = icmp ne ptr %19, null
  br i1 %20, label %22, label %21

21:                                               ; preds = %16
  store i1 false, ptr %4, align 1
  store i32 1, ptr %10, align 4
  br label %47

22:                                               ; preds = %16
  %23 = load ptr, ptr %8, align 8
  %24 = getelementptr inbounds nuw %struct.quic_info_data, ptr %23, i32 0, i32 25
  %25 = load ptr, ptr %24, align 8
  %26 = call ptr @wmem_list_head(ptr noundef %25)
  store ptr %26, ptr %9, align 8
  br label %27

27:                                               ; preds = %43, %22
  %28 = load ptr, ptr %9, align 8
  %29 = icmp ne ptr %28, null
  br i1 %29, label %30, label %46

30:                                               ; preds = %27
  %31 = load ptr, ptr %9, align 8
  %32 = call ptr @wmem_list_frame_data(ptr noundef %31)
  %33 = ptrtoint ptr %32 to i64
  %34 = trunc i64 %33 to i32
  %35 = load i32, ptr %6, align 4
  %36 = icmp uge i32 %34, %35
  br i1 %36, label %37, label %43

37:                                               ; preds = %30
  %38 = load ptr, ptr %9, align 8
  %39 = call ptr @wmem_list_frame_data(ptr noundef %38)
  %40 = ptrtoint ptr %39 to i64
  %41 = trunc i64 %40 to i32
  %42 = load ptr, ptr %7, align 8
  store i32 %41, ptr %42, align 4
  store i1 true, ptr %4, align 1
  store i32 1, ptr %10, align 4
  br label %47

43:                                               ; preds = %30
  %44 = load ptr, ptr %9, align 8
  %45 = call ptr @wmem_list_frame_next(ptr noundef %44)
  store ptr %45, ptr %9, align 8
  br label %27, !llvm.loop !13

46:                                               ; preds = %27
  store i1 false, ptr %4, align 1
  store i32 1, ptr %10, align 4
  br label %47

47:                                               ; preds = %46, %37, %21, %15
  call void @llvm.lifetime.end.p0(i64 8, ptr %9) #19
  call void @llvm.lifetime.end.p0(i64 8, ptr %8) #19
  %48 = load i1, ptr %4, align 1
  ret i1 %48
}