; Function Attrs: null_pointer_is_valid sspstrong uwtable
define noundef zeroext i1 @quic_get_stream_id_ge(i32 noundef %0, i32 noundef %1, ptr noundef writeonly captures(none) %2) local_unnamed_addr #0 {
  %4 = load ptr, ptr @quic_connections, align 8
  %5 = tail call ptr @wmem_list_head(ptr noundef %4)
  %.not7.i = icmp eq ptr %5, null
  br i1 %.not7.i, label %get_conn_by_number.exit.thread, label %.lr.ph.i

.lr.ph.i:                                         ; preds = %3, %9
  %.08.i = phi ptr [ %10, %9 ], [ %5, %3 ]
  %6 = tail call ptr @wmem_list_frame_data(ptr noundef nonnull %.08.i)
  %7 = load i32, ptr %6, align 8
  %8 = icmp eq i32 %7, %0
  br i1 %8, label %get_conn_by_number.exit, label %9

9:                                                ; preds = %.lr.ph.i
  %10 = tail call ptr @wmem_list_frame_next(ptr noundef nonnull %.08.i)
  %.not.i = icmp eq ptr %10, null
  br i1 %.not.i, label %get_conn_by_number.exit.thread, label %.lr.ph.i, !llvm.loop !10

get_conn_by_number.exit:                          ; preds = %.lr.ph.i
  %.not = icmp eq ptr %6, null
  br i1 %.not, label %get_conn_by_number.exit.thread, label %11

11:                                               ; preds = %get_conn_by_number.exit
  %12 = getelementptr inbounds nuw i8, ptr %6, i64 632
  %13 = load ptr, ptr %12, align 8
  %.not13 = icmp eq ptr %13, null
  br i1 %.not13, label %get_conn_by_number.exit.thread, label %14

14:                                               ; preds = %11
  %15 = tail call ptr @wmem_list_head(ptr noundef nonnull %13)
  %.not1421 = icmp eq ptr %15, null
  br i1 %.not1421, label %get_conn_by_number.exit.thread, label %.lr.ph

.lr.ph:                                           ; preds = %14, %23
  %.022 = phi ptr [ %24, %23 ], [ %15, %14 ]
  %16 = tail call ptr @wmem_list_frame_data(ptr noundef nonnull %.022)
  %17 = ptrtoint ptr %16 to i64
  %18 = trunc i64 %17 to i32
  %.not15 = icmp ugt i32 %1, %18
  br i1 %.not15, label %23, label %19

19:                                               ; preds = %.lr.ph
  %20 = tail call ptr @wmem_list_frame_data(ptr noundef nonnull %.022)
  %21 = ptrtoint ptr %20 to i64
  %22 = trunc i64 %21 to i32
  store i32 %22, ptr %2, align 4
  br label %get_conn_by_number.exit.thread

23:                                               ; preds = %.lr.ph
  %24 = tail call ptr @wmem_list_frame_next(ptr noundef nonnull %.022)
  %.not14 = icmp eq ptr %24, null
  br i1 %.not14, label %get_conn_by_number.exit.thread, label %.lr.ph, !llvm.loop !12

get_conn_by_number.exit.thread:                   ; preds = %9, %23, %14, %3, %11, %get_conn_by_number.exit, %19
  %.010 = phi i1 [ true, %19 ], [ false, %get_conn_by_number.exit ], [ false, %11 ], [ false, %3 ], [ false, %14 ], [ false, %23 ], [ false, %9 ]
  ret i1 %.010
}